target datalayout = "e-m:e-p270:32:32-p271:32:32-p272:64:64-i64:64-i128:128-f80:128-n8:16:32:64-S128"
target triple = "x86_64-pc-linux-gnu"

%struct._dcerpc_info = type { ptr, i32, i64, i8, i8, i8, i32, i32, i32, i32, i32, i32, i32, i32, ptr, ptr, ptr, ptr, %struct.anon }
%struct.anon = type { i8, ptr, ptr, ptr, i8 }
%struct._packet_info = type { ptr, ptr, i32, i32, %struct.nstime_t, %struct.nstime_t, %struct.nstime_t, i8, ptr, ptr, ptr, ptr, %struct._address, %struct._address, %struct._address, %struct._address, %struct._address, %struct._address, i32, ptr, i8, [3 x i8], %struct.anon.0, i32, i32, i32, i32, ptr, i8, ptr, ptr, i16, i16, i32, i32, i16, i32, i32, ptr, ptr, ptr, i8, i8, i16, i16, i16, i32, i16, i16, ptr, ptr, ptr, ptr, ptr, i32, i32 }
%struct.nstime_t = type { i64, i32 }
%struct._address = type { i32, i32, ptr, ptr }
%struct.anon.0 = type { i8, [3 x i8] }

@hf_fileexp_volid_hi = internal global i32 0, align 4
@hf_fileexp_volid_low = internal global i32 0, align 4
@hf_fileexp_vvage = internal global i32 0, align 4
@hf_fileexp_vv_hi = internal global i32 0, align 4
@hf_fileexp_vv_low = internal global i32 0, align 4
@hf_fileexp_vvpingage = internal global i32 0, align 4
@hf_fileexp_vvspare1 = internal global i32 0, align 4
@hf_fileexp_vvspare2 = internal global i32 0, align 4
@ett_fileexp_volsync = internal global i32 0, align 4
@.str.412 = private unnamed_addr constant [12 x i8] c"AfsVolSync:\00", align 1
@.str.413 = private unnamed_addr constant [92 x i8] c" volid_hi:%u volid_low:%u vv_hi:%u vv_low:%u vvage:%u vvpingage:%u vvpspare1:%u vvspare2:%u\00", align 1

; Function Attrs: null_pointer_is_valid sspstrong uwtable
define internal i32 @dissect_volsync(ptr noundef %0, i32 noundef %1, ptr noundef %2, ptr noundef %3, ptr noundef %4, ptr noundef %5) #0 {
  %7 = alloca i32, align 4
  %8 = alloca ptr, align 8
  %9 = alloca i32, align 4
  %10 = alloca ptr, align 8
  %11 = alloca ptr, align 8
  %12 = alloca ptr, align 8
  %13 = alloca ptr, align 8
  %14 = alloca ptr, align 8
  %15 = alloca ptr, align 8
  %16 = alloca i32, align 4
  %17 = alloca i32, align 4
  %18 = alloca i32, align 4
  %19 = alloca i32, align 4
  %20 = alloca i32, align 4
  %21 = alloca i32, align 4
  %22 = alloca i32, align 4
  %23 = alloca i32, align 4
  %24 = alloca i32, align 4
  %25 = alloca i32, align 4
  store ptr %0, ptr %8, align 8
  store i32 %1, ptr %9, align 4
  store ptr %2, ptr %10, align 8
  store ptr %3, ptr %11, align 8
  store ptr %4, ptr %12, align 8
  store ptr %5, ptr %13, align 8
  call void @llvm.lifetime.start.p0(i64 8, ptr %14) #4
  store ptr null, ptr %14, align 8
  call void @llvm.lifetime.start.p0(i64 8, ptr %15) #4
  store ptr null, ptr %15, align 8
  call void @llvm.lifetime.start.p0(i64 4, ptr %16) #4
  %26 = load i32, ptr %9, align 4
  store i32 %26, ptr %16, align 4
  call void @llvm.lifetime.start.p0(i64 4, ptr %17) #4
  call void @llvm.lifetime.start.p0(i64 4, ptr %18) #4
  call void @llvm.lifetime.start.p0(i64 4, ptr %19) #4
  call void @llvm.lifetime.start.p0(i64 4, ptr %20) #4
  call void @llvm.lifetime.start.p0(i64 4, ptr %21) #4
  call void @llvm.lifetime.start.p0(i64 4, ptr %22) #4
  call void @llvm.lifetime.start.p0(i64 4, ptr %23) #4
  call void @llvm.lifetime.start.p0(i64 4, ptr %24) #4
  %27 = load ptr, ptr %12, align 8
  %28 = getelementptr inbounds nuw %struct._dcerpc_info, ptr %27, i32 0, i32 4
  %29 = load i8, ptr %28, align 1, !range !6, !noundef !7
  %30 = trunc i8 %29 to i1
  br i1 %30, label %31, label %33

31:                                               ; preds = %6
  %32 = load i32, ptr %9, align 4
  store i32 %32, ptr %7, align 4
  store i32 1, ptr %25, align 4
  br label %123

33:                                               ; preds = %6
  %34 = load ptr, ptr %11, align 8
  %35 = icmp ne ptr %34, null
  br i1 %35, label %36, label %42

36:                                               ; preds = %33
  %37 = load ptr, ptr %11, align 8
  %38 = load ptr, ptr %8, align 8
  %39 = load i32, ptr %9, align 4
  %40 = load i32, ptr @ett_fileexp_volsync, align 4
  %41 = call ptr @proto_tree_add_subtree(ptr noundef %37, ptr noundef %38, i32 noundef %39, i32 noundef -1, i32 noundef %40, ptr noundef %14, ptr noundef @.str.412)
  store ptr %41, ptr %15, align 8
  br label %42

42:                                               ; preds = %36, %33
  %43 = load ptr, ptr %8, align 8
  %44 = load i32, ptr %9, align 4
  %45 = load ptr, ptr %10, align 8
  %46 = load ptr, ptr %15, align 8
  %47 = load ptr, ptr %12, align 8
  %48 = load ptr, ptr %13, align 8
  %49 = load i32, ptr @hf_fileexp_volid_hi, align 4
  %50 = call i32 @dissect_ndr_uint32(ptr noundef %43, i32 noundef %44, ptr noundef %45, ptr noundef %46, ptr noundef %47, ptr noundef %48, i32 noundef %49, ptr noundef %17)
  store i32 %50, ptr %9, align 4
  %51 = load ptr, ptr %8, align 8
  %52 = load i32, ptr %9, align 4
  %53 = load ptr, ptr %10, align 8
  %54 = load ptr, ptr %15, align 8
  %55 = load ptr, ptr %12, align 8
  %56 = load ptr, ptr %13, align 8
  %57 = load i32, ptr @hf_fileexp_volid_low, align 4
  %58 = call i32 @dissect_ndr_uint32(ptr noundef %51, i32 noundef %52, ptr noundef %53, ptr noundef %54, ptr noundef %55, ptr noundef %56, i32 noundef %57, ptr noundef %18)
  store i32 %58, ptr %9, align 4
  %59 = load ptr, ptr %8, align 8
  %60 = load i32, ptr %9, align 4
  %61 = load ptr, ptr %10, align 8
  %62 = load ptr, ptr %15, align 8
  %63 = load ptr, ptr %12, align 8
  %64 = load ptr, ptr %13, align 8
  %65 = load i32, ptr @hf_fileexp_vv_hi, align 4
  %66 = call i32 @dissect_ndr_uint32(ptr noundef %59, i32 noundef %60, ptr noundef %61, ptr noundef %62, ptr noundef %63, ptr noundef %64, i32 noundef %65, ptr noundef %19)
  store i32 %66, ptr %9, align 4
  %67 = load ptr, ptr %8, align 8
  %68 = load i32, ptr %9, align 4
  %69 = load ptr, ptr %10, align 8
  %70 = load ptr, ptr %15, align 8
  %71 = load ptr, ptr %12, align 8
  %72 = load ptr, ptr %13, align 8
  %73 = load i32, ptr @hf_fileexp_vv_low, align 4
  %74 = call i32 @dissect_ndr_uint32(ptr noundef %67, i32 noundef %68, ptr noundef %69, ptr noundef %70, ptr noundef %71, ptr noundef %72, i32 noundef %73, ptr noundef %20)
  store i32 %74, ptr %9, align 4
  %75 = load ptr, ptr %8, align 8
  %76 = load i32, ptr %9, align 4
  %77 = load ptr, ptr %10, align 8
  %78 = load ptr, ptr %15, align 8
  %79 = load ptr, ptr %12, align 8
  %80 = load ptr, ptr %13, align 8
  %81 = load i32, ptr @hf_fileexp_vvage, align 4
  %82 = call i32 @dissect_ndr_uint32(ptr noundef %75, i32 noundef %76, ptr noundef %77, ptr noundef %78, ptr noundef %79, ptr noundef %80, i32 noundef %81, ptr noundef %21)
  store i32 %82, ptr %9, align 4
  %83 = load ptr, ptr %8, align 8
  %84 = load i32, ptr %9, align 4
  %85 = load ptr, ptr %10, align 8
  %86 = load ptr, ptr %15, align 8
  %87 = load ptr, ptr %12, align 8
  %88 = load ptr, ptr %13, align 8
  %89 = load i32, ptr @hf_fileexp_vvpingage, align 4
  %90 = call i32 @dissect_ndr_uint32(ptr noundef %83, i32 noundef %84, ptr noundef %85, ptr noundef %86, ptr noundef %87, ptr noundef %88, i32 noundef %89, ptr noundef %22)
  store i32 %90, ptr %9, align 4
  %91 = load ptr, ptr %8, align 8
  %92 = load i32, ptr %9, align 4
  %93 = load ptr, ptr %10, align 8
  %94 = load ptr, ptr %15, align 8
  %95 = load ptr, ptr %12, align 8
  %96 = load ptr, ptr %13, align 8
  %97 = load i32, ptr @hf_fileexp_vvspare1, align 4
  %98 = call i32 @dissect_ndr_uint32(ptr noundef %91, i32 noundef %92, ptr noundef %93, ptr noundef %94, ptr noundef %95, ptr noundef %96, i32 noundef %97, ptr noundef %23)
  store i32 %98, ptr %9, align 4
  %99 = load ptr, ptr %8, align 8
  %100 = load i32, ptr %9, align 4
  %101 = load ptr, ptr %10, align 8
  %102 = load ptr, ptr %15, align 8
  %103 = load ptr, ptr %12, align 8
  %104 = load ptr, ptr %13, align 8
  %105 = load i32, ptr @hf_fileexp_vvspare2, align 4
  %106 = call i32 @dissect_ndr_uint32(ptr noundef %99, i32 noundef %100, ptr noundef %101, ptr noundef %102, ptr noundef %103, ptr noundef %104, i32 noundef %105, ptr noundef %24)
  store i32 %106, ptr %9, align 4
  %107 = load ptr, ptr %10, align 8
  %108 = getelementptr inbounds nuw %struct._packet_info, ptr %107, i32 0, i32 1
  %109 = load ptr, ptr %108, align 8
  %110 = load i32, ptr %17, align 4
  %111 = load i32, ptr %18, align 4
  %112 = load i32, ptr %19, align 4
  %113 = load i32, ptr %20, align 4
  %114 = load i32, ptr %21, align 4
  %115 = load i32, ptr %22, align 4
  %116 = load i32, ptr %23, align 4
  %117 = load i32, ptr %24, align 4
  call void (ptr, i32, ptr, ...) @col_append_fstr(ptr noundef %109, i32 noundef 25, ptr noundef @.str.413, i32 noundef %110, i32 noundef %111, i32 noundef %112, i32 noundef %113, i32 noundef %114, i32 noundef %115, i32 noundef %116, i32 noundef %117)
  %118 = load ptr, ptr %14, align 8
  %119 = load i32, ptr %9, align 4
  %120 = load i32, ptr %16, align 4
  %121 = sub i32 %119, %120
  call void @proto_item_set_len(ptr noundef %118, i32 noundef %121)
  %122 = load i32, ptr %9, align 4
  store i32 %122, ptr %7, align 4
  store i32 1, ptr %25, align 4
  br label %123

123:                                              ; preds = %42, %31
  call void @llvm.lifetime.end.p0(i64 4, ptr %24) #4
  call void @llvm.lifetime.end.p0(i64 4, ptr %23) #4
  call void @llvm.lifetime.end.p0(i64 4, ptr %22) #4
  call void @llvm.lifetime.end.p0(i64 4, ptr %21) #4
  call void @llvm.lifetime.end.p0(i64 4, ptr %20) #4
  call void @llvm.lifetime.end.p0(i64 4, ptr %19) #4
  call void @llvm.lifetime.end.p0(i64 4, ptr %18) #4
  call void @llvm.lifetime.end.p0(i64 4, ptr %17) #4
  call void @llvm.lifetime.end.p0(i64 4, ptr %16) #4
  call void @llvm.lifetime.end.p0(i64 8, ptr %15) #4
  call void @llvm.lifetime.end.p0(i64 8, ptr %14) #4
  %124 = load i32, ptr %7, align 4
  ret i32 %124
}