; Function Attrs: null_pointer_is_valid sspstrong uwtable
define internal i32 @dissect_volsync(ptr noundef %0, i32 noundef %1, ptr noundef %2, ptr noundef %3, ptr noundef %4, ptr noundef %5) #0 {
  %7 = alloca ptr, align 8
  %8 = alloca i32, align 4
  %9 = alloca i32, align 4
  %10 = alloca i32, align 4
  %11 = alloca i32, align 4
  %12 = alloca i32, align 4
  %13 = alloca i32, align 4
  %14 = alloca i32, align 4
  %15 = alloca i32, align 4
  call void @llvm.lifetime.start.p0(i64 8, ptr nonnull %7) #4
  store ptr null, ptr %7, align 8
  call void @llvm.lifetime.start.p0(i64 4, ptr nonnull %8) #4
  call void @llvm.lifetime.start.p0(i64 4, ptr nonnull %9) #4
  call void @llvm.lifetime.start.p0(i64 4, ptr nonnull %10) #4
  call void @llvm.lifetime.start.p0(i64 4, ptr nonnull %11) #4
  call void @llvm.lifetime.start.p0(i64 4, ptr nonnull %12) #4
  call void @llvm.lifetime.start.p0(i64 4, ptr nonnull %13) #4
  call void @llvm.lifetime.start.p0(i64 4, ptr nonnull %14) #4
  call void @llvm.lifetime.start.p0(i64 4, ptr nonnull %15) #4
  %16 = getelementptr inbounds nuw i8, ptr %4, i64 25
  %17 = load i8, ptr %16, align 1, !range !6, !noundef !7
  %18 = trunc nuw i8 %17 to i1
  br i1 %18, label %52, label %19

19:                                               ; preds = %6
  %.not = icmp eq ptr %3, null
  br i1 %.not, label %23, label %20

20:                                               ; preds = %19
  %21 = load i32, ptr @ett_fileexp_volsync, align 4
  %22 = call ptr @proto_tree_add_subtree(ptr noundef nonnull %3, ptr noundef %0, i32 noundef %1, i32 noundef -1, i32 noundef %21, ptr noundef nonnull %7, ptr noundef nonnull @.str.412)
  br label %23

23:                                               ; preds = %20, %19
  %.059 = phi ptr [ %22, %20 ], [ null, %19 ]
  %24 = load i32, ptr @hf_fileexp_volid_hi, align 4
  %25 = call i32 @dissect_ndr_uint32(ptr noundef %0, i32 noundef %1, ptr noundef %2, ptr noundef %.059, ptr noundef %4, ptr noundef %5, i32 noundef %24, ptr noundef nonnull %8)
  %26 = load i32, ptr @hf_fileexp_volid_low, align 4
  %27 = call i32 @dissect_ndr_uint32(ptr noundef %0, i32 noundef %25, ptr noundef %2, ptr noundef %.059, ptr noundef %4, ptr noundef %5, i32 noundef %26, ptr noundef nonnull %9)
  %28 = load i32, ptr @hf_fileexp_vv_hi, align 4
  %29 = call i32 @dissect_ndr_uint32(ptr noundef %0, i32 noundef %27, ptr noundef %2, ptr noundef %.059, ptr noundef %4, ptr noundef %5, i32 noundef %28, ptr noundef nonnull %10)
  %30 = load i32, ptr @hf_fileexp_vv_low, align 4
  %31 = call i32 @dissect_ndr_uint32(ptr noundef %0, i32 noundef %29, ptr noundef %2, ptr noundef %.059, ptr noundef %4, ptr noundef %5, i32 noundef %30, ptr noundef nonnull %11)
  %32 = load i32, ptr @hf_fileexp_vvage, align 4
  %33 = call i32 @dissect_ndr_uint32(ptr noundef %0, i32 noundef %31, ptr noundef %2, ptr noundef %.059, ptr noundef %4, ptr noundef %5, i32 noundef %32, ptr noundef nonnull %12)
  %34 = load i32, ptr @hf_fileexp_vvpingage, align 4
  %35 = call i32 @dissect_ndr_uint32(ptr noundef %0, i32 noundef %33, ptr noundef %2, ptr noundef %.059, ptr noundef %4, ptr noundef %5, i32 noundef %34, ptr noundef nonnull %13)
  %36 = load i32, ptr @hf_fileexp_vvspare1, align 4
  %37 = call i32 @dissect_ndr_uint32(ptr noundef %0, i32 noundef %35, ptr noundef %2, ptr noundef %.059, ptr noundef %4, ptr noundef %5, i32 noundef %36, ptr noundef nonnull %14)
  %38 = load i32, ptr @hf_fileexp_vvspare2, align 4
  %39 = call i32 @dissect_ndr_uint32(ptr noundef %0, i32 noundef %37, ptr noundef %2, ptr noundef %.059, ptr noundef %4, ptr noundef %5, i32 noundef %38, ptr noundef nonnull %15)
  %40 = getelementptr inbounds nuw i8, ptr %2, i64 8
  %41 = load ptr, ptr %40, align 8
  %42 = load i32, ptr %8, align 4
  %43 = load i32, ptr %9, align 4
  %44 = load i32, ptr %10, align 4
  %45 = load i32, ptr %11, align 4
  %46 = load i32, ptr %12, align 4
  %47 = load i32, ptr %13, align 4
  %48 = load i32, ptr %14, align 4
  %49 = load i32, ptr %15, align 4
  call void (ptr, i32, ptr, ...) @col_append_fstr(ptr noundef %41, i32 noundef 25, ptr noundef nonnull @.str.413, i32 noundef %42, i32 noundef %43, i32 noundef %44, i32 noundef %45, i32 noundef %46, i32 noundef %47, i32 noundef %48, i32 noundef %49)
  %50 = load ptr, ptr %7, align 8
  %51 = sub i32 %39, %1
  call void @proto_item_set_len(ptr noundef %50, i32 noundef %51)
  br label %52

52:                                               ; preds = %6, %23
  %.0 = phi i32 [ %39, %23 ], [ %1, %6 ]
  call void @llvm.lifetime.end.p0(i64 4, ptr nonnull %15) #4
  call void @llvm.lifetime.end.p0(i64 4, ptr nonnull %14) #4
  call void @llvm.lifetime.end.p0(i64 4, ptr nonnull %13) #4
  call void @llvm.lifetime.end.p0(i64 4, ptr nonnull %12) #4
  call void @llvm.lifetime.end.p0(i64 4, ptr nonnull %11) #4
  call void @llvm.lifetime.end.p0(i64 4, ptr nonnull %10) #4
  call void @llvm.lifetime.end.p0(i64 4, ptr nonnull %9) #4
  call void @llvm.lifetime.end.p0(i64 4, ptr nonnull %8) #4
  call void @llvm.lifetime.end.p0(i64 8, ptr nonnull %7) #4
  ret i32 %.0
}